target datalayout = "e-m:e-p270:32:32-p271:32:32-p272:64:64-i64:64-i128:128-f80:128-n8:16:32:64-S128"
target triple = "x86_64-pc-linux-gnu"

%struct.OnigEncodingTypeST = type { ptr, ptr, i32, i32, ptr, ptr, ptr, ptr, ptr, ptr, ptr, ptr, ptr, ptr, ptr, ptr, ptr, ptr, ptr, i32, i32, i32 }
%struct._Node = type { %union.anon.2 }
%union.anon.2 = type { %struct.BagNode }
%struct.BagNode = type { i32, i32, ptr, ptr, i32, %union.anon.4, i32, i32, i32, i32, i32 }
%union.anon.4 = type { %struct.anon.7 }
%struct.anon.7 = type { ptr, ptr }
%struct.anon.3 = type { i32, i32, ptr, ptr }
%struct.CClassNode = type { i32, i32, ptr, i32, [8 x i32], ptr }

; Function Attrs: nounwind uwtable
define internal void @initialize_cclass(ptr noundef %0) #0 {
  %2 = alloca ptr, align 8
  %3 = alloca i32, align 4
  store ptr %0, ptr %2, align 8, !tbaa !9
  br label %4

4:                                                ; preds = %1
  call void @llvm.lifetime.start.p0(i64 4, ptr %3) #8
  store i32 0, ptr %3, align 4, !tbaa !10
  br label %5

5:                                                ; preds = %14, %4
  %6 = load i32, ptr %3, align 4, !tbaa !10
  %7 = icmp slt i32 %6, 8
  br i1 %7, label %8, label %17

8:                                                ; preds = %5
  %9 = load ptr, ptr %2, align 8, !tbaa !9
  %10 = getelementptr inbounds nuw %struct.CClassNode, ptr %9, i32 0, i32 4
  %11 = load i32, ptr %3, align 4, !tbaa !10
  %12 = sext i32 %11 to i64
  %13 = getelementptr inbounds [8 x i32], ptr %10, i64 0, i64 %12
  store i32 0, ptr %13, align 4, !tbaa !10
  br label %14

14:                                               ; preds = %8
  %15 = load i32, ptr %3, align 4, !tbaa !10
  %16 = add nsw i32 %15, 1
  store i32 %16, ptr %3, align 4, !tbaa !10
  br label %5, !llvm.loop !186

17:                                               ; preds = %5
  call void @llvm.lifetime.end.p0(i64 4, ptr %3) #8
  br label %18

18:                                               ; preds = %17
  %19 = load ptr, ptr %2, align 8, !tbaa !9
  %20 = getelementptr inbounds nuw %struct.CClassNode, ptr %19, i32 0, i32 3
  store i32 0, ptr %20, align 8, !tbaa !187
  %21 = load ptr, ptr %2, align 8, !tbaa !9
  %22 = getelementptr inbounds nuw %struct.CClassNode, ptr %21, i32 0, i32 5
  store ptr null, ptr %22, align 8, !tbaa !114
  ret void
}

; Function Attrs: nounwind uwtable
define internal ptr @node_new() #0 {
  %1 = alloca ptr, align 8
  %2 = alloca ptr, align 8
  %3 = alloca i32, align 4
  call void @llvm.lifetime.start.p0(i64 8, ptr %2) #8
  %4 = call noalias ptr @malloc(i64 noundef 72) #9
  store ptr %4, ptr %2, align 8, !tbaa !111
  %5 = load ptr, ptr %2, align 8, !tbaa !111
  %6 = icmp eq ptr %5, null
  br i1 %6, label %7, label %8

7:                                                ; preds = %0
  store ptr null, ptr %1, align 8
  store i32 1, ptr %3, align 4
  br label %11

8:                                                ; preds = %0
  %9 = load ptr, ptr %2, align 8, !tbaa !111
  call void @llvm.memset.p0.i64(ptr align 8 %9, i8 0, i64 72, i1 false)
  %10 = load ptr, ptr %2, align 8, !tbaa !111
  store ptr %10, ptr %1, align 8
  store i32 1, ptr %3, align 4
  br label %11

11:                                               ; preds = %8, %7
  call void @llvm.lifetime.end.p0(i64 8, ptr %2) #8
  %12 = load ptr, ptr %1, align 8
  ret ptr %12
}

; Function Attrs: nounwind uwtable
define internal ptr @node_new_cclass() #0 {
  %1 = alloca ptr, align 8
  %2 = alloca ptr, align 8
  %3 = alloca i32, align 4
  call void @llvm.lifetime.start.p0(i64 8, ptr %2) #8
  %4 = call ptr @node_new()
  store ptr %4, ptr %2, align 8, !tbaa !111
  %5 = load ptr, ptr %2, align 8, !tbaa !111
  %6 = icmp eq ptr %5, null
  br i1 %6, label %7, label %8

7:                                                ; preds = %0
  store ptr null, ptr %1, align 8
  store i32 1, ptr %3, align 4
  br label %15

8:                                                ; preds = %0
  %9 = load ptr, ptr %2, align 8, !tbaa !111
  %10 = getelementptr inbounds nuw %struct._Node, ptr %9, i32 0, i32 0
  %11 = getelementptr inbounds nuw %struct.anon.3, ptr %10, i32 0, i32 0
  store i32 1, ptr %11, align 8, !tbaa !12
  %12 = load ptr, ptr %2, align 8, !tbaa !111
  %13 = getelementptr inbounds nuw %struct._Node, ptr %12, i32 0, i32 0
  call void @initialize_cclass(ptr noundef %13)
  %14 = load ptr, ptr %2, align 8, !tbaa !111
  store ptr %14, ptr %1, align 8
  store i32 1, ptr %3, align 4
  br label %15

15:                                               ; preds = %8, %7
  call void @llvm.lifetime.end.p0(i64 8, ptr %2) #8
  %16 = load ptr, ptr %1, align 8
  ret ptr %16
}

; Function Attrs: nounwind uwtable
define dso_local i32 @onig_new_cclass_with_code_list(ptr noundef %0, ptr noundef %1, i32 noundef %2, ptr noundef %3) #0 {
  %5 = alloca i32, align 4
  %6 = alloca ptr, align 8
  %7 = alloca ptr, align 8
  %8 = alloca i32, align 4
  %9 = alloca ptr, align 8
  %10 = alloca i32, align 4
  %11 = alloca ptr, align 8
  %12 = alloca ptr, align 8
  %13 = alloca i32, align 4
  store ptr %0, ptr %6, align 8, !tbaa !119
  store ptr %1, ptr %7, align 8, !tbaa !32
  store i32 %2, ptr %8, align 4, !tbaa !10
  store ptr %3, ptr %9, align 8, !tbaa !62
  call void @llvm.lifetime.start.p0(i64 4, ptr %10) #8
  call void @llvm.lifetime.start.p0(i64 8, ptr %11) #8
  call void @llvm.lifetime.start.p0(i64 8, ptr %12) #8
  %14 = load ptr, ptr %6, align 8, !tbaa !119
  store ptr null, ptr %14, align 8, !tbaa !111
  %15 = call ptr @node_new_cclass()
  store ptr %15, ptr %11, align 8, !tbaa !111
  %16 = load ptr, ptr %11, align 8, !tbaa !111
  %17 = icmp eq ptr %16, null
  br i1 %17, label %18, label %19

18:                                               ; preds = %4
  store i32 -5, ptr %5, align 4
  store i32 1, ptr %13, align 4
  br label %86

19:                                               ; preds = %4
  %20 = load ptr, ptr %11, align 8, !tbaa !111
  %21 = getelementptr inbounds nuw %struct._Node, ptr %20, i32 0, i32 0
  store ptr %21, ptr %12, align 8, !tbaa !9
  store i32 0, ptr %10, align 4, !tbaa !10
  br label %22

22:                                               ; preds = %80, %19
  %23 = load i32, ptr %10, align 4, !tbaa !10
  %24 = load i32, ptr %8, align 4, !tbaa !10
  %25 = icmp slt i32 %23, %24
  br i1 %25, label %26, label %83

26:                                               ; preds = %22
  br label %27

27:                                               ; preds = %26
  %28 = load ptr, ptr %7, align 8, !tbaa !32
  %29 = getelementptr inbounds nuw %struct.OnigEncodingTypeST, ptr %28, i32 0, i32 3
  %30 = load i32, ptr %29, align 4, !tbaa !136
  %31 = icmp sgt i32 %30, 1
  br i1 %31, label %43, label %32

32:                                               ; preds = %27
  %33 = load ptr, ptr %7, align 8, !tbaa !32
  %34 = getelementptr inbounds nuw %struct.OnigEncodingTypeST, ptr %33, i32 0, i32 6
  %35 = load ptr, ptr %34, align 8, !tbaa !137
  %36 = load ptr, ptr %9, align 8, !tbaa !62
  %37 = load i32, ptr %10, align 4, !tbaa !10
  %38 = sext i32 %37 to i64
  %39 = getelementptr inbounds i32, ptr %36, i64 %38
  %40 = load i32, ptr %39, align 4, !tbaa !10
  %41 = call i32 %35(i32 noundef %40)
  %42 = icmp ne i32 %41, 1
  br i1 %42, label %43, label %57

43:                                               ; preds = %32, %27
  %44 = load ptr, ptr %12, align 8, !tbaa !9
  %45 = getelementptr inbounds nuw %struct.CClassNode, ptr %44, i32 0, i32 5
  %46 = load ptr, ptr %9, align 8, !tbaa !62
  %47 = load i32, ptr %10, align 4, !tbaa !10
  %48 = sext i32 %47 to i64
  %49 = getelementptr inbounds i32, ptr %46, i64 %48
  %50 = load i32, ptr %49, align 4, !tbaa !10
  %51 = load ptr, ptr %9, align 8, !tbaa !62
  %52 = load i32, ptr %10, align 4, !tbaa !10
  %53 = sext i32 %52 to i64
  %54 = getelementptr inbounds i32, ptr %51, i64 %53
  %55 = load i32, ptr %54, align 4, !tbaa !10
  %56 = call i32 @add_code_range_to_buf(ptr noundef %45, i32 noundef %50, i32 noundef %55)
  br label %77

57:                                               ; preds = %32
  %58 = load ptr, ptr %9, align 8, !tbaa !62
  %59 = load i32, ptr %10, align 4, !tbaa !10
  %60 = sext i32 %59 to i64
  %61 = getelementptr inbounds i32, ptr %58, i64 %60
  %62 = load i32, ptr %61, align 4, !tbaa !10
  %63 = and i32 %62, 31
  %64 = shl i32 1, %63
  %65 = load ptr, ptr %12, align 8, !tbaa !9
  %66 = getelementptr inbounds nuw %struct.CClassNode, ptr %65, i32 0, i32 4
  %67 = load ptr, ptr %9, align 8, !tbaa !62
  %68 = load i32, ptr %10, align 4, !tbaa !10
  %69 = sext i32 %68 to i64
  %70 = getelementptr inbounds i32, ptr %67, i64 %69
  %71 = load i32, ptr %70, align 4, !tbaa !10
  %72 = lshr i32 %71, 5
  %73 = zext i32 %72 to i64
  %74 = getelementptr inbounds nuw [8 x i32], ptr %66, i64 0, i64 %73
  %75 = load i32, ptr %74, align 4, !tbaa !10
  %76 = or i32 %75, %64
  store i32 %76, ptr %74, align 4, !tbaa !10
  br label %77

77:                                               ; preds = %57, %43
  br label %78

78:                                               ; preds = %77
  br label %79

79:                                               ; preds = %78
  br label %80

80:                                               ; preds = %79
  %81 = load i32, ptr %10, align 4, !tbaa !10
  %82 = add nsw i32 %81, 1
  store i32 %82, ptr %10, align 4, !tbaa !10
  br label %22, !llvm.loop !138

83:                                               ; preds = %22
  %84 = load ptr, ptr %11, align 8, !tbaa !111
  %85 = load ptr, ptr %6, align 8, !tbaa !119
  store ptr %84, ptr %85, align 8, !tbaa !111
  store i32 0, ptr %5, align 4
  store i32 1, ptr %13, align 4
  br label %86

86:                                               ; preds = %83, %18
  call void @llvm.lifetime.end.p0(i64 8, ptr %12) #8
  call void @llvm.lifetime.end.p0(i64 8, ptr %11) #8
  call void @llvm.lifetime.end.p0(i64 4, ptr %10) #8
  %87 = load i32, ptr %5, align 4
  ret i32 %87
}