; Function Attrs: nounwind uwtable
define dso_local range(i32 -5, 1) i32 @onig_new_cclass_with_code_list(ptr noundef writeonly captures(none) initializes((0, 8)) %0, ptr noundef readonly captures(none) %1, i32 noundef %2, ptr noundef readonly captures(none) %3) local_unnamed_addr #2 {
  store ptr null, ptr %0, align 8, !tbaa !112
  %calloc.i.i = tail call noalias noundef dereferenceable_or_null(72) ptr @calloc(i64 1, i64 72)
  %5 = icmp eq ptr %calloc.i.i, null
  br i1 %5, label %node_new_cclass.exit.thread, label %node_new_cclass.exit

node_new_cclass.exit:                             ; preds = %4
  store i32 1, ptr %calloc.i.i, align 8, !tbaa !10
  %6 = icmp sgt i32 %2, 0
  br i1 %6, label %.lr.ph, label %._crit_edge

.lr.ph:                                           ; preds = %node_new_cclass.exit
  %7 = getelementptr inbounds nuw i8, ptr %1, i64 20
  %8 = getelementptr inbounds nuw i8, ptr %1, i64 40
  %9 = getelementptr inbounds nuw i8, ptr %calloc.i.i, i64 20
  %10 = getelementptr inbounds nuw i8, ptr %calloc.i.i, i64 56
  %wide.trip.count = zext nneg i32 %2 to i64
  br label %11

11:                                               ; preds = %.lr.ph, %32
  %indvars.iv = phi i64 [ 0, %.lr.ph ], [ %indvars.iv.next, %32 ]
  %12 = load i32, ptr %7, align 4, !tbaa !124
  %13 = icmp sgt i32 %12, 1
  br i1 %13, label %19, label %14

14:                                               ; preds = %11
  %15 = load ptr, ptr %8, align 8, !tbaa !125
  %16 = getelementptr inbounds nuw i32, ptr %3, i64 %indvars.iv
  %17 = load i32, ptr %16, align 4, !tbaa !8
  %18 = tail call i32 %15(i32 noundef %17) #24
  %.not = icmp eq i32 %18, 1
  br i1 %.not, label %23, label %19

19:                                               ; preds = %14, %11
  %20 = getelementptr inbounds nuw i32, ptr %3, i64 %indvars.iv
  %21 = load i32, ptr %20, align 4, !tbaa !8
  %22 = tail call fastcc i32 @add_code_range_to_buf(ptr noundef nonnull %10, i32 noundef %21, i32 noundef %21)
  br label %32

23:                                               ; preds = %14
  %24 = load i32, ptr %16, align 4, !tbaa !8
  %25 = and i32 %24, 31
  %26 = shl nuw i32 1, %25
  %27 = lshr i32 %24, 5
  %28 = zext nneg i32 %27 to i64
  %29 = getelementptr inbounds nuw [8 x i32], ptr %9, i64 0, i64 %28
  %30 = load i32, ptr %29, align 4, !tbaa !8
  %31 = or i32 %26, %30
  store i32 %31, ptr %29, align 4, !tbaa !8
  br label %32

32:                                               ; preds = %19, %23
  %indvars.iv.next = add nuw nsw i64 %indvars.iv, 1
  %exitcond.not = icmp eq i64 %indvars.iv.next, %wide.trip.count
  br i1 %exitcond.not, label %._crit_edge, label %11, !llvm.loop !126

._crit_edge:                                      ; preds = %32, %node_new_cclass.exit
  store ptr %calloc.i.i, ptr %0, align 8, !tbaa !112
  br label %node_new_cclass.exit.thread

node_new_cclass.exit.thread:                      ; preds = %4, %._crit_edge
  %.0 = phi i32 [ 0, %._crit_edge ], [ -5, %4 ]
  ret i32 %.0
}